; Function Attrs: mustprogress nofree norecurse nosync nounwind willreturn memory(read, argmem: readwrite, inaccessiblemem: none) uwtable
define noundef i32 @_ZN6icu_7522UTF16CollationIterator14handleNextCE32ERiR10UErrorCode(ptr nocapture noundef nonnull align 8 dereferenceable(416) %this, ptr nocapture noundef nonnull writeonly align 4 dereferenceable(4) %c, ptr nocapture nonnull readnone align 4 %0) unnamed_addr #8 align 2 {
entry:
  %pos = getelementptr inbounds i8, ptr %this, i64 400
  %1 = load ptr, ptr %pos, align 8
  %limit = getelementptr inbounds i8, ptr %this, i64 408
  %2 = load ptr, ptr %limit, align 8
  %cmp = icmp eq ptr %1, %2
  br i1 %cmp, label %if.then, label %if.end

if.then:                                          ; preds = %entry
  store i32 -1, ptr %c, align 4
  br label %return

if.end:                                           ; preds = %entry
  %incdec.ptr = getelementptr inbounds i8, ptr %1, i64 2
  store ptr %incdec.ptr, ptr %pos, align 8
  %3 = load i16, ptr %1, align 2
  %conv = zext i16 %3 to i32
  store i32 %conv, ptr %c, align 4
  %trie = getelementptr inbounds i8, ptr %this, i64 8
  %4 = load ptr, ptr %trie, align 8
  %data32 = getelementptr inbounds i8, ptr %4, i64 16
  %5 = load ptr, ptr %data32, align 8
  %6 = load ptr, ptr %4, align 8
  %shr = lshr i32 %conv, 5
  %idxprom = zext nneg i32 %shr to i64
  %arrayidx = getelementptr inbounds i16, ptr %6, i64 %idxprom
  %7 = load i16, ptr %arrayidx, align 2
  %conv4 = zext i16 %7 to i32
  %shl = shl nuw nsw i32 %conv4, 2
  %and = and i32 %conv, 31
  %add5 = add nuw nsw i32 %shl, %and
  %idxprom6 = zext nneg i32 %add5 to i64
  %arrayidx7 = getelementptr inbounds i32, ptr %5, i64 %idxprom6
  %8 = load i32, ptr %arrayidx7, align 4
  br label %return

return:                                           ; preds = %if.end, %if.then
  %retval.0 = phi i32 [ 192, %if.then ], [ %8, %if.end ]
  ret i32 %retval.0
}